; Function Attrs: mustprogress uwtable
define noundef nonnull align 8 dereferenceable(8) ptr @_ZNK6icu_7739FormattedValueFieldPositionIteratorImpl8appendToERNS_10AppendableER10UErrorCode(ptr noundef nonnull align 8 dereferenceable(104) %0, ptr noundef nonnull returned align 8 dereferenceable(8) %1, ptr nonnull readnone align 4 captures(none) %2) unnamed_addr #1 align 2 {
  %4 = getelementptr inbounds nuw i8, ptr %0, i64 16
  %5 = load i16, ptr %4, align 8, !tbaa !17
  %6 = and i16 %5, 17
  %.not.i = icmp eq i16 %6, 0
  br i1 %.not.i, label %7, label %_ZNK6icu_7713UnicodeString9getBufferEv.exit

7:                                                ; preds = %3
  %8 = and i16 %5, 2
  %.not2.i = icmp eq i16 %8, 0
  br i1 %.not2.i, label %11, label %9

9:                                                ; preds = %7
  %10 = getelementptr inbounds nuw i8, ptr %0, i64 18
  br label %_ZNK6icu_7713UnicodeString9getBufferEv.exit

11:                                               ; preds = %7
  %12 = getelementptr inbounds nuw i8, ptr %0, i64 32
  %13 = load ptr, ptr %12, align 8, !tbaa !17
  br label %_ZNK6icu_7713UnicodeString9getBufferEv.exit

_ZNK6icu_7713UnicodeString9getBufferEv.exit:      ; preds = %3, %9, %11
  %.0.i = phi ptr [ %10, %9 ], [ %13, %11 ], [ null, %3 ]
  %14 = icmp slt i16 %5, 0
  %15 = ashr i16 %5, 5
  %16 = sext i16 %15 to i32
  %17 = getelementptr inbounds nuw i8, ptr %0, i64 20
  %18 = load i32, ptr %17, align 4
  %19 = select i1 %14, i32 %18, i32 %16
  %20 = load ptr, ptr %1, align 8, !tbaa !15
  %21 = getelementptr inbounds nuw i8, ptr %20, i64 40
  %22 = load ptr, ptr %21, align 8
  %23 = tail call noundef signext i8 %22(ptr noundef nonnull align 8 dereferenceable(8) %1, ptr noundef %.0.i, i32 noundef %19)
  ret ptr %1
}